; Function Attrs: mustprogress nofree norecurse nosync nounwind willreturn memory(argmem: write) uwtable
define hidden void @_ZN6Assimp4D3MF13XmlSerializerC2EPNS_10TXmlParserIN4pugi8xml_nodeEEE(ptr noundef nonnull align 8 dereferenceable(136) %this, ptr noundef %xmlParser) unnamed_addr #2 align 2 personality ptr @__gxx_personality_v0 {
entry:
  %0 = getelementptr inbounds i8, ptr %this, i64 80
  %_M_left.i.i.i.i.i = getelementptr inbounds i8, ptr %this, i64 96
  tail call void @llvm.memset.p0.i64(ptr noundef nonnull align 8 dereferenceable(96) %this, i8 0, i64 96, i1 false)
  store ptr %0, ptr %_M_left.i.i.i.i.i, align 8
  %_M_right.i.i.i.i.i = getelementptr inbounds i8, ptr %this, i64 104
  store ptr %0, ptr %_M_right.i.i.i.i.i, align 8
  %_M_node_count.i.i.i.i.i = getelementptr inbounds i8, ptr %this, i64 112
  store i64 0, ptr %_M_node_count.i.i.i.i.i, align 8
  %mMeshCount = getelementptr inbounds i8, ptr %this, i64 120
  store i32 0, ptr %mMeshCount, align 8
  %mXmlParser = getelementptr inbounds i8, ptr %this, i64 128
  store ptr %xmlParser, ptr %mXmlParser, align 8
  ret void
}